target datalayout = "e-m:e-p270:32:32-p271:32:32-p272:64:64-i64:64-i128:128-f80:128-n8:16:32:64-S128"
target triple = "x86_64-pc-linux-gnu"

@.str.42 = private unnamed_addr constant [4 x i8] c"%lu\00", align 1
@.str.45 = private unnamed_addr constant [11 x i8] c"%1023s %*s\00", align 1
@.str.46 = private unnamed_addr constant [11 x i8] c"%*s %1023s\00", align 1
@.str.47 = private unnamed_addr constant [4 x i8] c"max\00", align 1

; Function Attrs: mustprogress nounwind uwtable
define hidden noundef i64 @_ZN16CgroupController14limit_from_strEPc(ptr noundef %0) #1 align 2 {
  %2 = alloca i64, align 8
  %3 = alloca ptr, align 8
  %4 = alloca i64, align 8
  store ptr %0, ptr %3, align 8
  %5 = load ptr, ptr %3, align 8
  %6 = icmp eq ptr %5, null
  br i1 %6, label %7, label %8

7:                                                ; preds = %1
  store i64 -2, ptr %2, align 8
  br label %20

8:                                                ; preds = %1
  %9 = load ptr, ptr %3, align 8
  %10 = call i32 @strcmp(ptr noundef @.str.47, ptr noundef %9) #9
  %11 = icmp eq i32 %10, 0
  br i1 %11, label %12, label %13

12:                                               ; preds = %8
  store i64 -1, ptr %2, align 8
  br label %20

13:                                               ; preds = %8
  %14 = load ptr, ptr %3, align 8
  %15 = call i32 (ptr, ptr, ...) @__isoc99_sscanf(ptr noundef %14, ptr noundef @.str.42, ptr noundef %4) #8
  %16 = icmp ne i32 %15, 1
  br i1 %16, label %17, label %18

17:                                               ; preds = %13
  store i64 -2, ptr %2, align 8
  br label %20

18:                                               ; preds = %13
  %19 = load i64, ptr %4, align 8
  store i64 %19, ptr %2, align 8
  br label %20

20:                                               ; preds = %18, %17, %12, %7
  %21 = load i64, ptr %2, align 8
  ret i64 %21
}

; Function Attrs: mustprogress nounwind uwtable
define hidden noundef zeroext i1 @_ZN16CgroupController26read_numerical_tuple_valueEPKcbPl(ptr noundef nonnull align 8 dereferenceable(8) %0, ptr noundef %1, i1 noundef zeroext %2, ptr noundef %3) #1 align 2 {
  %5 = alloca i1, align 1
  %6 = alloca ptr, align 8
  %7 = alloca ptr, align 8
  %8 = alloca i8, align 1
  %9 = alloca ptr, align 8
  %10 = alloca [1024 x i8], align 16
  %11 = alloca i8, align 1
  %12 = alloca [1024 x i8], align 16
  %13 = alloca i32, align 4
  %14 = alloca i64, align 8
  store ptr %0, ptr %6, align 8
  store ptr %1, ptr %7, align 8
  %15 = zext i1 %2 to i8
  store i8 %15, ptr %8, align 1
  store ptr %3, ptr %9, align 8
  %16 = load ptr, ptr %6, align 8
  %17 = load ptr, ptr %7, align 8
  %18 = getelementptr inbounds [1024 x i8], ptr %10, i64 0, i64 0
  %19 = call noundef zeroext i1 @_ZN16CgroupController11read_stringEPKcPcm(ptr noundef nonnull align 8 dereferenceable(8) %16, ptr noundef %17, ptr noundef %18, i64 noundef 1024)
  %20 = zext i1 %19 to i8
  store i8 %20, ptr %11, align 1
  %21 = load i8, ptr %11, align 1
  %22 = trunc i8 %21 to i1
  br i1 %22, label %24, label %23

23:                                               ; preds = %4
  store i1 false, ptr %5, align 1
  br label %47

24:                                               ; preds = %4
  %25 = getelementptr inbounds [1024 x i8], ptr %10, i64 0, i64 0
  %26 = load i8, ptr %8, align 1
  %27 = trunc i8 %26 to i1
  br i1 %27, label %28, label %29

28:                                               ; preds = %24
  br label %30

29:                                               ; preds = %24
  br label %30

30:                                               ; preds = %29, %28
  %31 = phi ptr [ @.str.45, %28 ], [ @.str.46, %29 ]
  %32 = getelementptr inbounds [11 x i8], ptr %31, i64 0, i64 0
  %33 = getelementptr inbounds [1024 x i8], ptr %12, i64 0, i64 0
  %34 = call i32 (ptr, ptr, ...) @__isoc99_sscanf(ptr noundef %25, ptr noundef %32, ptr noundef %33) #8
  store i32 %34, ptr %13, align 4
  %35 = load i32, ptr %13, align 4
  %36 = icmp ne i32 %35, 1
  br i1 %36, label %37, label %38

37:                                               ; preds = %30
  store i1 false, ptr %5, align 1
  br label %47

38:                                               ; preds = %30
  %39 = getelementptr inbounds [1024 x i8], ptr %12, i64 0, i64 0
  %40 = call noundef i64 @_ZN16CgroupController14limit_from_strEPc(ptr noundef %39)
  store i64 %40, ptr %14, align 8
  %41 = load i64, ptr %14, align 8
  %42 = icmp eq i64 %41, -2
  br i1 %42, label %43, label %44

43:                                               ; preds = %38
  store i1 false, ptr %5, align 1
  br label %47

44:                                               ; preds = %38
  %45 = load i64, ptr %14, align 8
  %46 = load ptr, ptr %9, align 8
  store i64 %45, ptr %46, align 8
  store i1 true, ptr %5, align 1
  br label %47

47:                                               ; preds = %44, %43, %37, %23
  %48 = load i1, ptr %5, align 1
  ret i1 %48
}