; Function Attrs: mustprogress nounwind uwtable
define hidden noundef zeroext i1 @_ZN16CgroupController26read_numerical_tuple_valueEPKcbPl(ptr noundef nonnull align 8 dereferenceable(8) %0, ptr noundef %1, i1 noundef zeroext %2, ptr nocapture noundef writeonly %3) local_unnamed_addr #0 align 2 {
  %5 = alloca i64, align 8
  %6 = alloca [1024 x i8], align 16
  %7 = alloca [1024 x i8], align 16
  %8 = call noundef zeroext i1 @_ZN16CgroupController11read_stringEPKcPcm(ptr noundef nonnull align 8 dereferenceable(8) %0, ptr noundef %1, ptr noundef nonnull %6, i64 noundef 1024)
  br i1 %8, label %9, label %17

9:                                                ; preds = %4
  %.str.45..str.46 = select i1 %2, ptr @.str.45, ptr @.str.46
  %10 = call i32 (ptr, ptr, ...) @__isoc99_sscanf(ptr noundef nonnull %6, ptr noundef nonnull %.str.45..str.46, ptr noundef nonnull %7) #13
  %.not = icmp eq i32 %10, 1
  br i1 %.not, label %11, label %17

11:                                               ; preds = %9
  call void @llvm.lifetime.start.p0(i64 8, ptr nonnull %5)
  %rhsv = load i32, ptr %7, align 16
  %.not14 = icmp eq i32 %rhsv, 7889261
  br i1 %.not14, label %_ZN16CgroupController14limit_from_strEPc.exit.thread10, label %12

_ZN16CgroupController14limit_from_strEPc.exit.thread10: ; preds = %11
  call void @llvm.lifetime.end.p0(i64 8, ptr nonnull %5)
  br label %16

12:                                               ; preds = %11
  %13 = call i32 (ptr, ptr, ...) @__isoc99_sscanf(ptr noundef nonnull readonly %7, ptr noundef nonnull @.str.42, ptr noundef nonnull %5) #13
  %.not.i = icmp eq i32 %13, 1
  br i1 %.not.i, label %_ZN16CgroupController14limit_from_strEPc.exit, label %_ZN16CgroupController14limit_from_strEPc.exit.thread

_ZN16CgroupController14limit_from_strEPc.exit.thread: ; preds = %12
  call void @llvm.lifetime.end.p0(i64 8, ptr nonnull %5)
  br label %17

_ZN16CgroupController14limit_from_strEPc.exit:    ; preds = %12
  %14 = load i64, ptr %5, align 8
  call void @llvm.lifetime.end.p0(i64 8, ptr nonnull %5)
  %15 = icmp eq i64 %14, -2
  br i1 %15, label %17, label %16

16:                                               ; preds = %_ZN16CgroupController14limit_from_strEPc.exit.thread10, %_ZN16CgroupController14limit_from_strEPc.exit
  %.0.i12 = phi i64 [ -1, %_ZN16CgroupController14limit_from_strEPc.exit.thread10 ], [ %14, %_ZN16CgroupController14limit_from_strEPc.exit ]
  store i64 %.0.i12, ptr %3, align 8
  br label %17

17:                                               ; preds = %_ZN16CgroupController14limit_from_strEPc.exit.thread, %_ZN16CgroupController14limit_from_strEPc.exit, %9, %4, %16
  %.0 = phi i1 [ true, %16 ], [ false, %4 ], [ false, %9 ], [ false, %_ZN16CgroupController14limit_from_strEPc.exit ], [ false, %_ZN16CgroupController14limit_from_strEPc.exit.thread ]
  ret i1 %.0
}